; Function Attrs: mustprogress nounwind uwtable
define internal fastcc noundef zeroext i1 @_ZL24isLanguageDefinedBuiltinRKN5clang13SourceManagerEPKNS_9MacroInfoEN4llvm9StringRefE(ptr noundef nonnull align 8 dereferenceable(696) %0, ptr nocapture noundef readonly %1, ptr nocapture readonly %2, i64 %3) unnamed_addr #0 {
  %5 = alloca %"class.clang::PresumedLoc", align 8
  %6 = getelementptr inbounds nuw i8, ptr %1, i64 36
  %7 = load i16, ptr %6, align 4
  %8 = and i16 %7, 16
  %.not = icmp eq i16 %8, 0
  br i1 %.not, label %9, label %_ZNK4llvm9StringRef11starts_withES0_.exit10

9:                                                ; preds = %4
  %.sroa.0.0.copyload.i = load i32, ptr %1, align 8
  call void @llvm.lifetime.start.p0(i64 24, ptr nonnull %5)
  call void @_ZNK5clang13SourceManager14getPresumedLocENS_14SourceLocationEb(ptr dead_on_unwind nonnull writable sret(%"class.clang::PresumedLoc") align 8 %5, ptr noundef nonnull align 8 dereferenceable(696) %0, i32 %.sroa.0.0.copyload.i, i1 noundef zeroext true) #18
  %10 = load ptr, ptr %5, align 8
  %11 = icmp eq ptr %10, null
  br i1 %11, label %_ZNK5clang13SourceManager22isWrittenInBuiltinFileENS_14SourceLocationE.exit.thread, label %_ZN4llvm9StringRefC2EPKc.exit.i

_ZN4llvm9StringRefC2EPKc.exit.i:                  ; preds = %9
  %12 = call noundef i64 @strlen(ptr noundef nonnull dereferenceable(1) %10) #18
  %.not.i4.i = icmp eq i64 %12, 10
  br i1 %.not.i4.i, label %_ZNK5clang13SourceManager22isWrittenInBuiltinFileENS_14SourceLocationE.exit, label %_ZNK5clang13SourceManager22isWrittenInBuiltinFileENS_14SourceLocationE.exit.thread

_ZNK5clang13SourceManager22isWrittenInBuiltinFileENS_14SourceLocationE.exit.thread: ; preds = %9, %_ZN4llvm9StringRefC2EPKc.exit.i
  call void @llvm.lifetime.end.p0(i64 24, ptr nonnull %5)
  br label %_ZNK4llvm9StringRef11starts_withES0_.exit10

_ZNK5clang13SourceManager22isWrittenInBuiltinFileENS_14SourceLocationE.exit: ; preds = %_ZN4llvm9StringRefC2EPKc.exit.i
  %bcmp.i.i = call i32 @bcmp(ptr noundef nonnull dereferenceable(10) %10, ptr noundef nonnull dereferenceable(10) @.str, i64 10)
  %13 = icmp eq i32 %bcmp.i.i, 0
  call void @llvm.lifetime.end.p0(i64 24, ptr nonnull %5)
  br i1 %13, label %14, label %_ZNK4llvm9StringRef11starts_withES0_.exit10

14:                                               ; preds = %_ZNK5clang13SourceManager22isWrittenInBuiltinFileENS_14SourceLocationE.exit
  %.not.i = icmp ult i64 %3, 6
  br i1 %.not.i, label %_ZN4llvmeqENS_9StringRefES0_.exit.thread22, label %_ZNK4llvm9StringRef11starts_withES0_.exit

_ZNK4llvm9StringRef11starts_withES0_.exit:        ; preds = %14
  %bcmp.i = call i32 @bcmp(ptr noundef nonnull dereferenceable(6) %2, ptr noundef nonnull dereferenceable(6) @.str.249, i64 6)
  %15 = icmp eq i32 %bcmp.i, 0
  br i1 %15, label %_ZNK4llvm9StringRef11starts_withES0_.exit10, label %_ZNK4llvm9StringRef11starts_withES0_.exit.thread20

_ZNK4llvm9StringRef11starts_withES0_.exit.thread20: ; preds = %_ZNK4llvm9StringRef11starts_withES0_.exit
  %.not.i5 = icmp eq i64 %3, 11
  br i1 %.not.i5, label %_ZN4llvmeqENS_9StringRefES0_.exit, label %_ZN4llvmeqENS_9StringRefES0_.exit.thread22.thread

_ZN4llvmeqENS_9StringRefES0_.exit:                ; preds = %_ZNK4llvm9StringRef11starts_withES0_.exit.thread20
  %bcmp.i7 = call i32 @bcmp(ptr noundef nonnull dereferenceable(11) %2, ptr noundef nonnull dereferenceable(11) @.str.250, i64 11)
  %16 = icmp eq i32 %bcmp.i7, 0
  br i1 %16, label %_ZNK4llvm9StringRef11starts_withES0_.exit10, label %_ZN4llvmeqENS_9StringRefES0_.exit.thread22.thread

_ZN4llvmeqENS_9StringRefES0_.exit.thread22:       ; preds = %14
  %.not.i8.not = icmp eq i64 %3, 5
  br i1 %.not.i8.not, label %_ZN4llvmeqENS_9StringRefES0_.exit.thread22.thread, label %_ZNK4llvm9StringRef11starts_withES0_.exit10

_ZN4llvmeqENS_9StringRefES0_.exit.thread22.thread: ; preds = %_ZN4llvmeqENS_9StringRefES0_.exit, %_ZNK4llvm9StringRef11starts_withES0_.exit.thread20, %_ZN4llvmeqENS_9StringRefES0_.exit.thread22
  %bcmp.i9 = call i32 @bcmp(ptr noundef nonnull dereferenceable(5) %2, ptr noundef nonnull dereferenceable(5) @.str.251, i64 5)
  %17 = icmp eq i32 %bcmp.i9, 0
  br label %_ZNK4llvm9StringRef11starts_withES0_.exit10

_ZNK4llvm9StringRef11starts_withES0_.exit10:      ; preds = %_ZN4llvmeqENS_9StringRefES0_.exit.thread22.thread, %_ZN4llvmeqENS_9StringRefES0_.exit.thread22, %_ZNK5clang13SourceManager22isWrittenInBuiltinFileENS_14SourceLocationE.exit.thread, %_ZN4llvmeqENS_9StringRefES0_.exit, %_ZNK4llvm9StringRef11starts_withES0_.exit, %_ZNK5clang13SourceManager22isWrittenInBuiltinFileENS_14SourceLocationE.exit, %4
  %.0 = phi i1 [ true, %4 ], [ false, %_ZNK5clang13SourceManager22isWrittenInBuiltinFileENS_14SourceLocationE.exit ], [ true, %_ZNK4llvm9StringRef11starts_withES0_.exit ], [ true, %_ZN4llvmeqENS_9StringRefES0_.exit ], [ false, %_ZNK5clang13SourceManager22isWrittenInBuiltinFileENS_14SourceLocationE.exit.thread ], [ false, %_ZN4llvmeqENS_9StringRefES0_.exit.thread22 ], [ %17, %_ZN4llvmeqENS_9StringRefES0_.exit.thread22.thread ]
  ret i1 %.0
}